; Function Attrs: mustprogress null_pointer_is_valid sspstrong uwtable
define internal noundef i32 @_ZL32bluetooth_hci_summary_tap_packetPvP12_packet_infoP12epan_dissectPKvj(ptr noundef %0, ptr noundef %1, ptr noundef %2, ptr noundef %3, i32 noundef %4) #0 {
  %6 = getelementptr inbounds nuw i8, ptr %0, i64 8
  %7 = load ptr, ptr %6, align 8
  %.not = icmp eq ptr %7, null
  br i1 %.not, label %10, label %8

8:                                                ; preds = %5
  %9 = tail call noundef i32 %7(ptr noundef %0, ptr noundef %1, ptr noundef %2, ptr noundef %3, i32 noundef %4)
  br label %10

10:                                               ; preds = %8, %5
  ret i32 1
}